Certificate:
    Data:
        Version: 3 (0x2)
        Serial Number:
            58:e2:4a:22:b4:51:63:b9:46:2b:26:b8:13:97:3d:ae
    Signature Algorithm: sha256WithRSAEncryption
        Issuer: C=DE, ST=Bavaria, L=Mindelheim, O=GROB-WERKE GmbH & Co.KG, OU=GROB-NET4Industry-QARC, CN=qarc.cloud4machine.com/emailAddress=cloudadmin@cloud4machine.com
        Validity
            Not Before: Nov 17 08:18:09 2020 GMT
            Not After : Nov 16 08:18:09 2025 GMT
        Subject: CN=grob-qarc-leiner-1
        Subject Public Key Info:
            Public Key Algorithm: rsaEncryption
                Public-Key: (4096 bit)
                Modulus:
                    00:bb:5d:3b:dd:ad:6b:61:0a:00:2a:1f:88:54:05:
                    7a:16:36:2c:9d:6a:0b:66:a5:db:61:7d:69:36:01:
                    aa:78:fe:ec:e5:34:df:8e:48:a6:2a:7c:27:04:0d:
                    97:41:52:60:50:76:48:45:51:9e:59:4b:71:4a:9a:
                    9e:cc:6a:fc:83:1d:46:3c:a6:a4:5a:73:65:e3:af:
                    9a:1c:83:6e:89:01:54:f2:b8:c8:06:94:f7:67:c5:
                    f8:64:92:ff:6a:01:a4:0f:c0:94:5a:a0:26:7c:28:
                    4f:65:64:85:a2:0b:d3:bd:73:c3:5d:89:ae:47:62:
                    df:54:f4:b1:1c:1a:5b:91:e1:9d:ad:41:c2:6b:43:
                    d8:34:84:cb:9f:d2:42:6f:ad:d3:b4:62:b8:a3:ae:
                    72:e5:ff:38:a9:0d:99:ea:df:44:92:0d:61:8b:16:
                    ab:ad:e7:de:b0:b6:a1:7c:3f:a0:42:38:4b:f8:94:
                    0a:9c:2c:be:ba:41:22:71:98:92:d5:c0:2b:9d:53:
                    b3:2d:de:44:92:44:ff:75:d2:55:37:b5:2a:f8:fc:
                    d4:6f:23:d8:61:54:36:a4:53:f7:dd:f8:9c:d5:a9:
                    ff:8e:71:69:f8:0a:dd:15:04:1f:d5:b3:58:03:d7:
                    72:c0:20:de:93:41:8c:80:60:ef:a9:12:2b:8b:ae:
                    e7:c9:d4:e9:24:05:63:6b:c9:27:b0:55:1c:71:30:
                    4f:77:fb:b0:fe:03:bd:b5:41:08:8a:98:b2:7e:05:
                    bf:2b:47:68:1a:09:72:a7:89:a9:91:a6:51:4e:3f:
                    6a:31:bb:94:9e:f9:4f:f1:77:e5:d2:9d:cd:f0:07:
                    96:7b:a9:a9:f8:a0:49:57:79:33:6e:87:cd:fd:d9:
                    1c:b8:9b:01:52:fa:6b:46:da:99:bf:d8:bc:97:d9:
                    fb:34:a7:77:c2:e5:54:53:b5:dd:b7:da:89:9e:30:
                    86:94:c9:b8:46:f7:8e:9e:92:f6:e2:5d:f5:e6:cf:
                    12:67:b7:7f:ed:9f:63:fd:f0:e0:d2:20:ae:a6:22:
                    4f:34:e6:5b:b4:40:04:63:5c:65:82:14:9c:49:30:
                    aa:c8:8d:f4:da:8a:b6:a2:f4:61:7f:f8:d3:dc:fb:
                    38:e3:f6:e0:02:21:d4:90:3d:1d:a6:65:0e:1d:2a:
                    1d:21:37:9e:7c:d4:e3:e0:ce:f3:d3:17:80:ca:d5:
                    84:29:91:dc:90:9b:a6:30:ed:a6:27:8c:8a:47:0d:
                    8f:3c:a5:04:2f:61:3c:20:9a:43:01:b1:e9:42:99:
                    98:bc:74:0e:8b:00:c3:58:4a:b0:4d:ff:7f:e6:49:
                    ca:02:28:ba:35:ce:0e:af:6b:ac:88:af:88:1a:dd:
                    f3:9b:5b
                Exponent: 65537 (0x10001)
        X509v3 extensions:
            X509v3 Basic Constraints: 
                CA:FALSE
            X509v3 Subject Key Identifier: 
                A8:C3:02:BB:3C:9B:32:0C:E4:14:10:5E:DC:D8:32:2B:89:0E:7B:A8
            X509v3 Authority Key Identifier: 
                keyid:39:DD:5D:ED:D3:A4:8B:E3:32:67:E8:D7:23:EF:E3:22:16:7F:35:C3
                DirName:/DC=local/DC=grob/CN=GROB Group Root Authority
                serial:61:1E:07:BE:00:00:00:00:00:0E

            X509v3 Extended Key Usage: 
                TLS Web Server Authentication, TLS Web Client Authentication
            X509v3 Key Usage: 
                Digital Signature, Non Repudiation, Key Encipherment
    Signature Algorithm: sha256WithRSAEncryption
         a1:a0:30:92:57:3d:f4:f2:c8:75:d0:ef:e3:7e:44:f6:3d:7d:
         d1:96:f9:38:a0:96:84:75:b8:a0:74:e1:2c:19:af:d7:2a:2e:
         64:78:3a:09:46:8a:a9:d3:3a:d9:bb:8f:ad:f2:46:83:25:2a:
         72:0f:af:27:67:9c:35:99:92:01:64:13:85:45:d7:7e:91:37:
         9d:26:6c:fa:5e:85:e7:b1:b4:f9:eb:7a:f3:e5:3c:2f:0a:7c:
         be:bd:67:b8:6b:61:5c:69:14:fb:a0:3a:55:aa:60:5d:2f:a3:
         05:00:e2:63:b6:6d:64:51:66:9b:f1:bc:15:c9:26:b5:cb:d4:
         a8:94:d9:fc:6f:de:45:ca:4b:37:c3:38:0e:3a:47:62:57:7f:
         4a:46:4f:12:24:2f:a9:84:ee:f0:e6:43:c5:8f:19:d2:00:36:
         2b:9d:25:d4:e2:b3:95:8d:f4:75:78:c4:b6:58:1f:64:41:fb:
         f4:bd:70:99:23:3c:df:32:e5:11:2b:fa:c9:a8:11:79:53:b2:
         cd:84:42:a3:ba:32:74:64:c0:b8:56:0f:e8:b6:0d:3a:72:53:
         fe:d1:8a:51:8f:f5:ce:6f:65:f0:ce:21:c1:43:be:c8:f1:8d:
         e2:09:3b:02:c2:7c:40:1d:ba:16:66:12:4a:be:1a:89:4e:8e:
         82:d4:41:52:9a:02:f7:3b:91:e1:30:bc:b4:a2:82:66:e3:42:
         04:48:34:3c:3f:03:10:ad:23:5e:2f:72:52:e6:f9:c5:3d:5b:
         b0:a7:ab:cc:7c:cc:bc:02:f6:bb:d3:db:03:de:37:b3:7b:df:
         0f:57:49:cc:f4:3d:a6:fe:0b:bc:57:74:d8:7c:92:c5:70:6d:
         ed:1d:b6:b6:b0:fa:9f:86:de:94:4d:33:78:1d:00:14:20:bb:
         ea:ee:88:e9:57:c7:e6:3e:43:83:6e:47:4c:e4:a9:6d:c2:08:
         e3:c0:13:f9:b9:b6:b4:5f:8a:81:d9:40:23:bf:49:ae:1e:9b:
         de:b2:8f:6c:61:36:8d:c6:dd:80:7d:ff:57:58:a2:ea:78:b1:
         0f:1e:77:c5:79:69:2d:3a:31:02:ab:74:3a:12:5d:f8:a5:10:
         c8:00:88:55:9e:0d:d0:e8:24:09:98:a8:36:4d:6d:e3:d8:6e:
         4e:e4:46:a5:88:ee:23:61:a6:dd:02:88:54:11:42:11:6f:30:
         7f:a8:ac:fa:00:9d:1d:95:64:d7:db:dd:e8:ba:fb:c7:04:2f:
         44:65:b5:0e:80:79:b0:7f:71:e3:d0:14:f3:bd:70:55:87:d3:
         ae:e6:39:fb:9a:21:7e:77:4f:34:6b:47:91:26:eb:95:aa:93:
         2e:96:9f:62:e9:99:12:6b
-----BEGIN CERTIFICATE-----
MIIGTDCCBDSgAwIBAgIQWOJKIrRRY7lGKya4E5c9rjANBgkqhkiG9w0BAQsFADCB
xTELMAkGA1UEBhMCREUxEDAOBgNVBAgTB0JhdmFyaWExEzARBgNVBAcTCk1pbmRl
bGhlaW0xIDAeBgNVBAoMF0dST0ItV0VSS0UgR21iSCAmIENvLktHMR8wHQYDVQQL
ExZHUk9CLU5FVDRJbmR1c3RyeS1RQVJDMR8wHQYDVQQDExZxYXJjLmNsb3VkNG1h
Y2hpbmUuY29tMSswKQYJKoZIhvcNAQkBFhxjbG91ZGFkbWluQGNsb3VkNG1hY2hp
bmUuY29tMB4XDTIwMTExNzA4MTgwOVoXDTI1MTExNjA4MTgwOVowHTEbMBkGA1UE
AwwSZ3JvYi1xYXJjLWxlaW5lci0xMIICIjANBgkqhkiG9w0BAQEFAAOCAg8AMIIC
CgKCAgEAu1073a1rYQoAKh+IVAV6FjYsnWoLZqXbYX1pNgGqeP7s5TTfjkimKnwn
BA2XQVJgUHZIRVGeWUtxSpqezGr8gx1GPKakWnNl46+aHINuiQFU8rjIBpT3Z8X4
ZJL/agGkD8CUWqAmfChPZWSFogvTvXPDXYmuR2LfVPSxHBpbkeGdrUHCa0PYNITL
n9JCb63TtGK4o65y5f84qQ2Z6t9Ekg1hixarrefesLahfD+gQjhL+JQKnCy+ukEi
cZiS1cArnVOzLd5EkkT/ddJVN7Uq+PzUbyPYYVQ2pFP33fic1an/jnFp+ArdFQQf
1bNYA9dywCDek0GMgGDvqRIri67nydTpJAVja8knsFUccTBPd/uw/gO9tUEIipiy
fgW/K0doGglyp4mpkaZRTj9qMbuUnvlP8Xfl0p3N8AeWe6mp+KBJV3kzbofN/dkc
uJsBUvprRtqZv9i8l9n7NKd3wuVUU7Xdt9qJnjCGlMm4RveOnpL24l315s8SZ7d/
7Z9j/fDg0iCupiJPNOZbtEAEY1xlghScSTCqyI302oq2ovRhf/jT3Ps44/bgAiHU
kD0dpmUOHSodITeefNTj4M7z0xeAytWEKZHckJumMO2mJ4yKRw2PPKUEL2E8IJpD
AbHpQpmYvHQOiwDDWEqwTf9/5knKAii6Nc4Or2usiK+IGt3zm1sCAwEAAaOB3jCB
2zAJBgNVHRMEAjAAMB0GA1UdDgQWBBSowwK7PJsyDOQUEF7c2DIriQ57qDCBggYD
VR0jBHsweYAUOd1d7dOki+MyZ+jXI+/jIhZ/NcOhVaRTMFExFTATBgoJkiaJk/Is
ZAEZFgVsb2NhbDEUMBIGCgmSJomT8ixkARkWBGdyb2IxIjAgBgNVBAMTGUdST0Ig
R3JvdXAgUm9vdCBBdXRob3JpdHmCCmEeB74AAAAAAA4wHQYDVR0lBBYwFAYIKwYB
BQUHAwEGCCsGAQUFBwMCMAsGA1UdDwQEAwIF4DANBgkqhkiG9w0BAQsFAAOCAgEA
oaAwklc99PLIddDv435E9j190Zb5OKCWhHW4oHThLBmv1youZHg6CUaKqdM62buP
rfJGgyUqcg+vJ2ecNZmSAWQThUXXfpE3nSZs+l6F57G0+et68+U8Lwp8vr1nuGth
XGkU+6A6VapgXS+jBQDiY7ZtZFFmm/G8FckmtcvUqJTZ/G/eRcpLN8M4DjpHYld/
SkZPEiQvqYTu8OZDxY8Z0gA2K50l1OKzlY30dXjEtlgfZEH79L1wmSM83zLlESv6
yagReVOyzYRCo7oydGTAuFYP6LYNOnJT/tGKUY/1zm9l8M4hwUO+yPGN4gk7AsJ8
QB26FmYSSr4aiU6OgtRBUpoC9zuR4TC8tKKCZuNCBEg0PD8DEK0jXi9yUub5xT1b
sKerzHzMvAL2u9PbA943s3vfD1dJzPQ9pv4LvFd02HySxXBt7R22trD6n4belE0z
eB0AFCC76u6I6VfH5j5Dg25HTOSpbcII48AT+bm2tF+KgdlAI79Jrh6b3rKPbGE2
jcbdgH3/V1ii6nixDx53xXlpLToxAqt0OhJd+KUQyACIVZ4N0OgkCZioNk1t49hu
TuRGpYjuI2Gm3QKIVBFCEW8wf6is+gCdHZVk19vd6Lr7xwQvRGW1DoB5sH9x49AU
871wVYfTruY5+5ohfndPNGtHkSbrlaqTLpafYumZEms=
-----END CERTIFICATE-----
